; Function Attrs: null_pointer_is_valid sspstrong uwtable
define internal i32 @dissect_osinlcp_align_npdu_opt(ptr noundef %0, ptr noundef %1, ptr noundef %2, ptr readnone captures(none) %3) #1 {
  %5 = load i32, ptr @proto_osinlcp_option_align_npdu, align 4
  %6 = load i32, ptr @ett_osinlcp_align_npdu_opt, align 4
  %7 = tail call i32 @tvb_reported_length(ptr noundef %0)
  %.not.i.i = icmp eq i32 %7, 3
  br i1 %.not.i.i, label %14, label %8

8:                                                ; preds = %4
  %9 = tail call ptr @find_protocol_by_id(i32 noundef %5)
  %10 = tail call ptr @proto_get_protocol_short_name(ptr noundef %9)
  %11 = icmp eq i32 %7, 1
  %12 = select i1 %11, ptr @.str.1006, ptr @.str.1007
  %13 = tail call ptr (ptr, ptr, ptr, ptr, i32, i32, ptr, ...) @proto_tree_add_expert_format(ptr noundef %2, ptr noundef %1, ptr noundef nonnull @ei_ppp_opt_len_invalid, ptr noundef %0, i32 noundef 0, i32 noundef %7, ptr noundef nonnull @.str.1318, ptr noundef %10, i32 noundef %7, ptr noundef nonnull %12, i32 noundef 3)
  br label %26

14:                                               ; preds = %4
  %15 = tail call ptr @proto_tree_add_item(ptr noundef %2, i32 noundef %5, ptr noundef %0, i32 noundef 0, i32 noundef 3, i32 noundef 0)
  %16 = tail call ptr @proto_item_add_subtree(ptr noundef %15, i32 noundef %6)
  %17 = tail call ptr @proto_registrar_get_name(i32 noundef %5)
  %18 = tail call zeroext i8 @tvb_get_uint8(ptr noundef %0, i32 noundef 0)
  %19 = load i32, ptr @hf_osinlcp_opt_type, align 4
  %20 = zext i8 %18 to i32
  %21 = tail call ptr (ptr, i32, ptr, i32, i32, i32, ptr, ...) @proto_tree_add_uint_format_value(ptr noundef %16, i32 noundef %19, ptr noundef %0, i32 noundef 0, i32 noundef 1, i32 noundef %20, ptr noundef nonnull @.str.1295, ptr noundef %17, i32 noundef %20)
  %22 = load i32, ptr @hf_osinlcp_opt_length, align 4
  %23 = tail call ptr @proto_tree_add_item(ptr noundef %16, i32 noundef %22, ptr noundef %0, i32 noundef 1, i32 noundef 1, i32 noundef 0)
  %24 = load i32, ptr @hf_osinlcp_opt_alignment, align 4
  %25 = tail call ptr @proto_tree_add_item(ptr noundef %16, i32 noundef %24, ptr noundef %0, i32 noundef 2, i32 noundef 1, i32 noundef 0)
  br label %26

26:                                               ; preds = %14, %8
  %27 = tail call i32 @tvb_captured_length(ptr noundef %0)
  ret i32 %27
}